; Function Attrs: mustprogress nounwind uwtable
define dso_local void @_ZN5clang16OMPClausePrinter25VisitOMPLastprivateClauseEPNS_20OMPLastprivateClauseE(ptr noundef nonnull align 8 dereferenceable(16) %0, ptr noundef %1) local_unnamed_addr #1 align 2 {
  %3 = getelementptr inbounds nuw i8, ptr %1, i64 16
  %4 = load i32, ptr %3, align 4
  %5 = icmp eq i32 %4, 0
  br i1 %5, label %_ZN4llvm11raw_ostreamlsEPKc.exit19, label %6

6:                                                ; preds = %2
  %7 = load ptr, ptr %0, align 8
  %8 = getelementptr inbounds nuw i8, ptr %7, i64 24
  %9 = load ptr, ptr %8, align 8
  %10 = getelementptr inbounds nuw i8, ptr %7, i64 32
  %11 = load ptr, ptr %10, align 8
  %12 = ptrtoint ptr %9 to i64
  %13 = ptrtoint ptr %11 to i64
  %14 = sub i64 %12, %13
  %15 = icmp ult i64 %14, 11
  br i1 %15, label %16, label %18

16:                                               ; preds = %6
  %17 = tail call noundef nonnull align 8 dereferenceable(48) ptr @_ZN4llvm11raw_ostream5writeEPKcm(ptr noundef nonnull align 8 dereferenceable(48) %7, ptr noundef nonnull @.str.76, i64 noundef 11) #22
  br label %_ZN4llvm11raw_ostreamlsEPKc.exit

18:                                               ; preds = %6
  tail call void @llvm.memcpy.p0.p0.i64(ptr noundef nonnull align 1 dereferenceable(11) %11, ptr noundef nonnull align 1 dereferenceable(11) @.str.76, i64 11, i1 false)
  %19 = load ptr, ptr %10, align 8
  %20 = getelementptr inbounds nuw i8, ptr %19, i64 11
  store ptr %20, ptr %10, align 8
  br label %_ZN4llvm11raw_ostreamlsEPKc.exit

_ZN4llvm11raw_ostreamlsEPKc.exit:                 ; preds = %16, %18
  %21 = getelementptr inbounds nuw i8, ptr %1, i64 48
  %22 = load i32, ptr %21, align 8
  %.not = icmp eq i32 %22, 1
  br i1 %.not, label %_ZN4llvm11raw_ostreamlsEPKc.exit15, label %23

23:                                               ; preds = %_ZN4llvm11raw_ostreamlsEPKc.exit
  %24 = load ptr, ptr %0, align 8
  %25 = getelementptr inbounds nuw i8, ptr %24, i64 24
  %26 = load ptr, ptr %25, align 8
  %27 = getelementptr inbounds nuw i8, ptr %24, i64 32
  %28 = load ptr, ptr %27, align 8
  %29 = icmp eq ptr %26, %28
  br i1 %29, label %30, label %32

30:                                               ; preds = %23
  %31 = tail call noundef nonnull align 8 dereferenceable(48) ptr @_ZN4llvm11raw_ostream5writeEPKcm(ptr noundef nonnull align 8 dereferenceable(48) %24, ptr noundef nonnull @.str.29, i64 noundef 1) #22
  br label %_ZN4llvm11raw_ostreamlsEPKc.exit8

32:                                               ; preds = %23
  store i8 40, ptr %28, align 1
  %33 = load ptr, ptr %27, align 8
  %34 = getelementptr inbounds nuw i8, ptr %33, i64 1
  store ptr %34, ptr %27, align 8
  br label %_ZN4llvm11raw_ostreamlsEPKc.exit8

_ZN4llvm11raw_ostreamlsEPKc.exit8:                ; preds = %30, %32
  %.0.i.i7 = phi ptr [ %31, %30 ], [ %24, %32 ]
  %35 = load i32, ptr %21, align 8
  %36 = tail call noundef ptr @_ZN5clang29getOpenMPSimpleClauseTypeNameEN4llvm3omp6ClauseEj(i32 noundef 51, i32 noundef %35) #22
  %.not.i.i = icmp eq ptr %36, null
  br i1 %.not.i.i, label %_ZN4llvm11raw_ostreamlsEPKc.exit11, label %_ZN4llvm9StringRefC2EPKc.exit.i

_ZN4llvm9StringRefC2EPKc.exit.i:                  ; preds = %_ZN4llvm11raw_ostreamlsEPKc.exit8
  %37 = tail call noundef i64 @strlen(ptr noundef nonnull dereferenceable(1) %36) #22
  %38 = getelementptr inbounds nuw i8, ptr %.0.i.i7, i64 24
  %39 = load ptr, ptr %38, align 8
  %40 = getelementptr inbounds nuw i8, ptr %.0.i.i7, i64 32
  %41 = load ptr, ptr %40, align 8
  %42 = ptrtoint ptr %39 to i64
  %43 = ptrtoint ptr %41 to i64
  %44 = sub i64 %42, %43
  %45 = icmp ugt i64 %37, %44
  br i1 %45, label %46, label %48

46:                                               ; preds = %_ZN4llvm9StringRefC2EPKc.exit.i
  %47 = tail call noundef nonnull align 8 dereferenceable(48) ptr @_ZN4llvm11raw_ostream5writeEPKcm(ptr noundef nonnull align 8 dereferenceable(48) %.0.i.i7, ptr noundef nonnull %36, i64 noundef %37) #22
  br label %_ZN4llvm11raw_ostreamlsEPKc.exit11

48:                                               ; preds = %_ZN4llvm9StringRefC2EPKc.exit.i
  %.not.i2.i9 = icmp eq i64 %37, 0
  br i1 %.not.i2.i9, label %_ZN4llvm11raw_ostreamlsEPKc.exit11, label %49

49:                                               ; preds = %48
  tail call void @llvm.memcpy.p0.p0.i64(ptr align 1 %41, ptr nonnull align 1 %36, i64 %37, i1 false)
  %50 = load ptr, ptr %40, align 8
  %51 = getelementptr inbounds i8, ptr %50, i64 %37
  store ptr %51, ptr %40, align 8
  br label %_ZN4llvm11raw_ostreamlsEPKc.exit11

_ZN4llvm11raw_ostreamlsEPKc.exit11:               ; preds = %_ZN4llvm11raw_ostreamlsEPKc.exit8, %46, %48, %49
  %.0.i.i10 = phi ptr [ %47, %46 ], [ %.0.i.i7, %49 ], [ %.0.i.i7, %48 ], [ %.0.i.i7, %_ZN4llvm11raw_ostreamlsEPKc.exit8 ]
  %52 = getelementptr inbounds nuw i8, ptr %.0.i.i10, i64 24
  %53 = load ptr, ptr %52, align 8
  %54 = getelementptr inbounds nuw i8, ptr %.0.i.i10, i64 32
  %55 = load ptr, ptr %54, align 8
  %56 = icmp eq ptr %53, %55
  br i1 %56, label %57, label %59

57:                                               ; preds = %_ZN4llvm11raw_ostreamlsEPKc.exit11
  %58 = tail call noundef nonnull align 8 dereferenceable(48) ptr @_ZN4llvm11raw_ostream5writeEPKcm(ptr noundef nonnull align 8 dereferenceable(48) %.0.i.i10, ptr noundef nonnull @.str.73, i64 noundef 1) #22
  br label %_ZN4llvm11raw_ostreamlsEPKc.exit15

59:                                               ; preds = %_ZN4llvm11raw_ostreamlsEPKc.exit11
  store i8 58, ptr %55, align 1
  %60 = load ptr, ptr %54, align 8
  %61 = getelementptr inbounds nuw i8, ptr %60, i64 1
  store ptr %61, ptr %54, align 8
  br label %_ZN4llvm11raw_ostreamlsEPKc.exit15

_ZN4llvm11raw_ostreamlsEPKc.exit15:               ; preds = %59, %57, %_ZN4llvm11raw_ostreamlsEPKc.exit
  %62 = phi i8 [ 32, %59 ], [ 32, %57 ], [ 40, %_ZN4llvm11raw_ostreamlsEPKc.exit ]
  tail call void @_ZN5clang16OMPClausePrinter18VisitOMPClauseListINS_20OMPLastprivateClauseEEEvPT_c(ptr noundef nonnull align 8 dereferenceable(16) %0, ptr noundef nonnull %1, i8 noundef signext %62)
  %63 = load ptr, ptr %0, align 8
  %64 = getelementptr inbounds nuw i8, ptr %63, i64 24
  %65 = load ptr, ptr %64, align 8
  %66 = getelementptr inbounds nuw i8, ptr %63, i64 32
  %67 = load ptr, ptr %66, align 8
  %68 = icmp eq ptr %65, %67
  br i1 %68, label %69, label %71

69:                                               ; preds = %_ZN4llvm11raw_ostreamlsEPKc.exit15
  %70 = tail call noundef nonnull align 8 dereferenceable(48) ptr @_ZN4llvm11raw_ostream5writeEPKcm(ptr noundef nonnull align 8 dereferenceable(48) %63, ptr noundef nonnull @.str.3, i64 noundef 1) #22
  br label %_ZN4llvm11raw_ostreamlsEPKc.exit19

71:                                               ; preds = %_ZN4llvm11raw_ostreamlsEPKc.exit15
  store i8 41, ptr %67, align 1
  %72 = load ptr, ptr %66, align 8
  %73 = getelementptr inbounds nuw i8, ptr %72, i64 1
  store ptr %73, ptr %66, align 8
  br label %_ZN4llvm11raw_ostreamlsEPKc.exit19

_ZN4llvm11raw_ostreamlsEPKc.exit19:               ; preds = %71, %69, %2
  ret void
}